target datalayout = "e-m:e-p270:32:32-p271:32:32-p272:64:64-i64:64-i128:128-f80:128-n8:16:32:64-S128"
target triple = "x86_64-pc-linux-gnu"

%struct.AVFilterContext = type { ptr, ptr, ptr, ptr, ptr, i32, ptr, ptr, i32, ptr, ptr, i32, i32, ptr, ptr, ptr, ptr, i32, ptr, i32, i32 }
%struct.ConvolveContext = type { ptr, %struct.FFFrameSync, [4 x [16 x ptr]], [4 x [16 x ptr]], [4 x ptr], [4 x ptr], [4 x i32], [4 x i32], [4 x i32], [4 x i32], [4 x i32], [4 x i32], [4 x i32], [4 x ptr], [4 x ptr], [4 x ptr], [4 x ptr], [4 x ptr], [4 x ptr], [4 x ptr], [4 x ptr], i32, i32, i32, float, i32, [4 x i32], ptr, ptr, ptr, ptr }
%struct.FFFrameSync = type { ptr, ptr, i32, %struct.AVRational, i64, ptr, ptr, i32, i32, i8, i8, ptr, i32, i32, i32, i32 }
%struct.AVRational = type { i32, i32 }
%struct.ThreadData = type { ptr, ptr, ptr, ptr, i32, i32 }
%struct.AVComplexFloat = type { float, float }

; Function Attrs: nounwind uwtable
define internal i32 @ifft_horizontal(ptr noundef %0, ptr noundef %1, i32 noundef %2, i32 noundef %3) #0 {
  %5 = alloca ptr, align 8
  %6 = alloca ptr, align 8
  %7 = alloca i32, align 4
  %8 = alloca i32, align 4
  %9 = alloca ptr, align 8
  %10 = alloca ptr, align 8
  %11 = alloca ptr, align 8
  %12 = alloca ptr, align 8
  %13 = alloca i32, align 4
  %14 = alloca i32, align 4
  %15 = alloca i32, align 4
  %16 = alloca i32, align 4
  %17 = alloca i32, align 4
  store ptr %0, ptr %5, align 8, !tbaa !4
  store ptr %1, ptr %6, align 8, !tbaa !92
  store i32 %2, ptr %7, align 4, !tbaa !37
  store i32 %3, ptr %8, align 4, !tbaa !37
  call void @llvm.lifetime.start.p0(i64 8, ptr %9) #10
  %18 = load ptr, ptr %5, align 8, !tbaa !4
  %19 = getelementptr inbounds nuw %struct.AVFilterContext, ptr %18, i32 0, i32 9
  %20 = load ptr, ptr %19, align 8, !tbaa !9
  store ptr %20, ptr %9, align 8, !tbaa !22
  call void @llvm.lifetime.start.p0(i64 8, ptr %10) #10
  %21 = load ptr, ptr %6, align 8, !tbaa !92
  store ptr %21, ptr %10, align 8, !tbaa !93
  call void @llvm.lifetime.start.p0(i64 8, ptr %11) #10
  %22 = load ptr, ptr %10, align 8, !tbaa !93
  %23 = getelementptr inbounds nuw %struct.ThreadData, ptr %22, i32 0, i32 2
  %24 = load ptr, ptr %23, align 8, !tbaa !88
  store ptr %24, ptr %11, align 8, !tbaa !63
  call void @llvm.lifetime.start.p0(i64 8, ptr %12) #10
  %25 = load ptr, ptr %10, align 8, !tbaa !93
  %26 = getelementptr inbounds nuw %struct.ThreadData, ptr %25, i32 0, i32 0
  %27 = load ptr, ptr %26, align 8, !tbaa !86
  store ptr %27, ptr %12, align 8, !tbaa !63
  call void @llvm.lifetime.start.p0(i64 4, ptr %13) #10
  %28 = load ptr, ptr %10, align 8, !tbaa !93
  %29 = getelementptr inbounds nuw %struct.ThreadData, ptr %28, i32 0, i32 4
  %30 = load i32, ptr %29, align 8, !tbaa !83
  store i32 %30, ptr %13, align 4, !tbaa !37
  call void @llvm.lifetime.start.p0(i64 4, ptr %14) #10
  %31 = load ptr, ptr %10, align 8, !tbaa !93
  %32 = getelementptr inbounds nuw %struct.ThreadData, ptr %31, i32 0, i32 5
  %33 = load i32, ptr %32, align 4, !tbaa !85
  store i32 %33, ptr %14, align 4, !tbaa !37
  call void @llvm.lifetime.start.p0(i64 4, ptr %15) #10
  %34 = load i32, ptr %14, align 4, !tbaa !37
  %35 = load i32, ptr %7, align 4, !tbaa !37
  %36 = mul nsw i32 %34, %35
  %37 = load i32, ptr %8, align 4, !tbaa !37
  %38 = sdiv i32 %36, %37
  store i32 %38, ptr %15, align 4, !tbaa !37
  call void @llvm.lifetime.start.p0(i64 4, ptr %16) #10
  %39 = load i32, ptr %14, align 4, !tbaa !37
  %40 = load i32, ptr %7, align 4, !tbaa !37
  %41 = add nsw i32 %40, 1
  %42 = mul nsw i32 %39, %41
  %43 = load i32, ptr %8, align 4, !tbaa !37
  %44 = sdiv i32 %42, %43
  store i32 %44, ptr %16, align 4, !tbaa !37
  call void @llvm.lifetime.start.p0(i64 4, ptr %17) #10
  %45 = load i32, ptr %15, align 4, !tbaa !37
  store i32 %45, ptr %17, align 4, !tbaa !37
  br label %46

46:                                               ; preds = %78, %4
  %47 = load i32, ptr %17, align 4, !tbaa !37
  %48 = load i32, ptr %16, align 4, !tbaa !37
  %49 = icmp slt i32 %47, %48
  br i1 %49, label %50, label %81

50:                                               ; preds = %46
  %51 = load ptr, ptr %9, align 8, !tbaa !22
  %52 = getelementptr inbounds nuw %struct.ConvolveContext, ptr %51, i32 0, i32 5
  %53 = load i32, ptr %13, align 4, !tbaa !37
  %54 = sext i32 %53 to i64
  %55 = getelementptr inbounds [4 x ptr], ptr %52, i64 0, i64 %54
  %56 = load ptr, ptr %55, align 8, !tbaa !92
  %57 = load ptr, ptr %9, align 8, !tbaa !22
  %58 = getelementptr inbounds nuw %struct.ConvolveContext, ptr %57, i32 0, i32 3
  %59 = load i32, ptr %13, align 4, !tbaa !37
  %60 = sext i32 %59 to i64
  %61 = getelementptr inbounds [4 x [16 x ptr]], ptr %58, i64 0, i64 %60
  %62 = load i32, ptr %7, align 4, !tbaa !37
  %63 = sext i32 %62 to i64
  %64 = getelementptr inbounds [16 x ptr], ptr %61, i64 0, i64 %63
  %65 = load ptr, ptr %64, align 8, !tbaa !95
  %66 = load ptr, ptr %11, align 8, !tbaa !63
  %67 = load i32, ptr %17, align 4, !tbaa !37
  %68 = load i32, ptr %14, align 4, !tbaa !37
  %69 = mul nsw i32 %67, %68
  %70 = sext i32 %69 to i64
  %71 = getelementptr inbounds %struct.AVComplexFloat, ptr %66, i64 %70
  %72 = load ptr, ptr %12, align 8, !tbaa !63
  %73 = load i32, ptr %17, align 4, !tbaa !37
  %74 = load i32, ptr %14, align 4, !tbaa !37
  %75 = mul nsw i32 %73, %74
  %76 = sext i32 %75 to i64
  %77 = getelementptr inbounds %struct.AVComplexFloat, ptr %72, i64 %76
  call void %56(ptr noundef %65, ptr noundef %71, ptr noundef %77, i64 noundef 8)
  br label %78

78:                                               ; preds = %50
  %79 = load i32, ptr %17, align 4, !tbaa !37
  %80 = add nsw i32 %79, 1
  store i32 %80, ptr %17, align 4, !tbaa !37
  br label %46, !llvm.loop !105

81:                                               ; preds = %46
  call void @llvm.lifetime.end.p0(i64 4, ptr %17) #10
  call void @llvm.lifetime.end.p0(i64 4, ptr %16) #10
  call void @llvm.lifetime.end.p0(i64 4, ptr %15) #10
  call void @llvm.lifetime.end.p0(i64 4, ptr %14) #10
  call void @llvm.lifetime.end.p0(i64 4, ptr %13) #10
  call void @llvm.lifetime.end.p0(i64 8, ptr %12) #10
  call void @llvm.lifetime.end.p0(i64 8, ptr %11) #10
  call void @llvm.lifetime.end.p0(i64 8, ptr %10) #10
  call void @llvm.lifetime.end.p0(i64 8, ptr %9) #10
  ret i32 0
}